; Function Attrs: mustprogress uwtable
define void @_ZNK5Ipopt10DiagMatrix18ComputeRowAMaxImplERNS_6VectorEb(ptr nocapture noundef nonnull readonly align 8 dereferenceable(88) %0, ptr noundef nonnull align 8 dereferenceable(205) %1, i1 noundef zeroext %2) unnamed_addr #0 align 2 personality ptr @__gxx_personality_v0 {
  %4 = getelementptr inbounds i8, ptr %0, i64 80
  %5 = load ptr, ptr %4, align 8
  br i1 %2, label %6, label %_ZN5Ipopt8SmartPtrINS_6VectorEEC2EPS1_.exit

6:                                                ; preds = %3
  tail call void @_ZN5Ipopt6Vector4CopyERKS0_(ptr noundef nonnull align 8 dereferenceable(205) %1, ptr noundef nonnull align 8 dereferenceable(205) %5)
  %7 = load ptr, ptr %1, align 8
  %8 = getelementptr inbounds i8, ptr %7, i64 128
  %9 = load ptr, ptr %8, align 8
  tail call void %9(ptr noundef nonnull align 8 dereferenceable(205) %1)
  tail call void @_ZN5Ipopt12TaggedObject13ObjectChangedEv(ptr noundef nonnull align 8 dereferenceable(56) %1)
  br label %_ZN5Ipopt8SmartPtrINS_6VectorEED2Ev.exit

_ZN5Ipopt8SmartPtrINS_6VectorEEC2EPS1_.exit:      ; preds = %3
  %10 = getelementptr inbounds i8, ptr %5, i64 56
  %11 = load ptr, ptr %10, align 8
  %12 = load ptr, ptr %11, align 8
  %13 = getelementptr inbounds i8, ptr %12, i64 16
  %14 = load ptr, ptr %13, align 8
  %15 = tail call noundef ptr %14(ptr noundef nonnull align 8 dereferenceable(16) %11)
  tail call void @_ZN5Ipopt6Vector4CopyERKS0_(ptr noundef nonnull align 8 dereferenceable(205) %15, ptr noundef nonnull align 8 dereferenceable(205) %5)
  %16 = getelementptr inbounds i8, ptr %15, i64 8
  %17 = load i32, ptr %16, align 8
  %18 = add nsw i32 %17, 1
  store i32 %18, ptr %16, align 8
  %19 = load ptr, ptr %15, align 8
  %20 = getelementptr inbounds i8, ptr %19, i64 128
  %21 = load ptr, ptr %20, align 8
  invoke void %21(ptr noundef nonnull align 8 dereferenceable(205) %15)
          to label %.noexc unwind label %32

.noexc:                                           ; preds = %_ZN5Ipopt8SmartPtrINS_6VectorEEC2EPS1_.exit
  invoke void @_ZN5Ipopt12TaggedObject13ObjectChangedEv(ptr noundef nonnull align 8 dereferenceable(56) %15)
          to label %_ZN5Ipopt6Vector14ElementWiseAbsEv.exit unwind label %32

_ZN5Ipopt6Vector14ElementWiseAbsEv.exit:          ; preds = %.noexc
  %22 = load ptr, ptr %1, align 8
  %23 = getelementptr inbounds i8, ptr %22, i64 104
  %24 = load ptr, ptr %23, align 8
  invoke void %24(ptr noundef nonnull align 8 dereferenceable(205) %1, ptr noundef nonnull align 8 dereferenceable(205) %15)
          to label %.noexc7 unwind label %32

.noexc7:                                          ; preds = %_ZN5Ipopt6Vector14ElementWiseAbsEv.exit
  invoke void @_ZN5Ipopt12TaggedObject13ObjectChangedEv(ptr noundef nonnull align 8 dereferenceable(56) %1)
          to label %_ZN5Ipopt6Vector14ElementWiseMaxERKS0_.exit unwind label %32

_ZN5Ipopt6Vector14ElementWiseMaxERKS0_.exit:      ; preds = %.noexc7
  %25 = load i32, ptr %16, align 8
  %26 = add nsw i32 %25, -1
  store i32 %26, ptr %16, align 8
  %27 = icmp eq i32 %26, 0
  br i1 %27, label %28, label %_ZN5Ipopt8SmartPtrINS_6VectorEED2Ev.exit

28:                                               ; preds = %_ZN5Ipopt6Vector14ElementWiseMaxERKS0_.exit
  %29 = load ptr, ptr %15, align 8
  %30 = getelementptr inbounds i8, ptr %29, i64 8
  %31 = load ptr, ptr %30, align 8
  tail call void %31(ptr noundef nonnull align 8 dereferenceable(205) %15) #9
  br label %_ZN5Ipopt8SmartPtrINS_6VectorEED2Ev.exit

32:                                               ; preds = %_ZN5Ipopt8SmartPtrINS_6VectorEEC2EPS1_.exit, %.noexc, %_ZN5Ipopt6Vector14ElementWiseAbsEv.exit, %.noexc7
  %33 = landingpad { ptr, i32 }
          cleanup
  %34 = load i32, ptr %16, align 8
  %35 = add nsw i32 %34, -1
  store i32 %35, ptr %16, align 8
  %36 = icmp eq i32 %35, 0
  br i1 %36, label %37, label %_ZN5Ipopt8SmartPtrINS_6VectorEED2Ev.exit11

37:                                               ; preds = %32
  %38 = load ptr, ptr %15, align 8
  %39 = getelementptr inbounds i8, ptr %38, i64 8
  %40 = load ptr, ptr %39, align 8
  tail call void %40(ptr noundef nonnull align 8 dereferenceable(205) %15) #9
  br label %_ZN5Ipopt8SmartPtrINS_6VectorEED2Ev.exit11

_ZN5Ipopt8SmartPtrINS_6VectorEED2Ev.exit11:       ; preds = %32, %37
  resume { ptr, i32 } %33

_ZN5Ipopt8SmartPtrINS_6VectorEED2Ev.exit:         ; preds = %28, %_ZN5Ipopt6Vector14ElementWiseMaxERKS0_.exit, %6
  ret void
}